; Function Attrs: nounwind uwtable
define ptr @l_Lean_ShareCommon_objectFactory___lambda__2(ptr readnone captures(none) %0, ptr readnone captures(none) %1, ptr noundef %2, ptr noundef %3, ptr noundef readonly captures(none) %4, ptr noundef %5) local_unnamed_addr #0 {
  %7 = getelementptr inbounds nuw i8, ptr %4, i64 16
  %8 = load ptr, ptr %7, align 8, !tbaa !11
  %9 = getelementptr i8, ptr %8, i64 8
  %.val = load i64, ptr %9, align 8, !tbaa !13
  %10 = and i64 %.val, 9223372036854775807
  %11 = ptrtoint ptr %5 to i64
  %12 = and i64 %11, 1
  %.not = icmp eq i64 %12, 0
  br i1 %.not, label %13, label %lean_inc.exit

13:                                               ; preds = %6
  %.val.i = load i32, ptr %5, align 4, !tbaa !5
  %14 = icmp sgt i32 %.val.i, 0
  br i1 %14, label %15, label %17, !prof !10

15:                                               ; preds = %13
  %16 = add nuw i32 %.val.i, 1
  store i32 %16, ptr %5, align 4, !tbaa !5
  br label %lean_inc.exit

17:                                               ; preds = %13
  %.not.i31 = icmp eq i32 %.val.i, 0
  br i1 %.not.i31, label %lean_inc.exit, label %18

18:                                               ; preds = %17
  tail call void @lean_inc_ref_cold(ptr noundef nonnull %5) #4
  br label %lean_inc.exit

lean_inc.exit:                                    ; preds = %18, %17, %15, %6
  %19 = tail call ptr @lean_apply_1(ptr noundef %3, ptr noundef %5) #4
  %20 = getelementptr i8, ptr %19, i64 8
  %.val30 = load i64, ptr %20, align 8, !tbaa !13
  %21 = ptrtoint ptr %19 to i64
  %22 = and i64 %21, 1
  %.not34 = icmp eq i64 %22, 0
  br i1 %.not34, label %23, label %lean_dec.exit

23:                                               ; preds = %lean_inc.exit
  %24 = load i32, ptr %19, align 4, !tbaa !5
  %25 = icmp sgt i32 %24, 1
  br i1 %25, label %26, label %28, !prof !10

26:                                               ; preds = %23
  %27 = add nsw i32 %24, -1
  store i32 %27, ptr %19, align 4, !tbaa !5
  br label %lean_dec.exit

28:                                               ; preds = %23
  %.not.i = icmp eq i32 %24, 0
  br i1 %.not.i, label %lean_dec.exit, label %29

29:                                               ; preds = %28
  tail call void @lean_dec_ref_cold(ptr noundef nonnull %19) #4
  br label %lean_dec.exit

lean_dec.exit:                                    ; preds = %lean_inc.exit, %26, %28, %29
  %30 = lshr i64 %.val30, 32
  %31 = xor i64 %30, %.val30
  %32 = lshr i64 %31, 16
  %33 = xor i64 %32, %31
  %34 = add nsw i64 %10, -1
  %35 = and i64 %33, %34
  %36 = getelementptr inbounds nuw i8, ptr %8, i64 24
  %37 = getelementptr inbounds nuw [0 x ptr], ptr %36, i64 0, i64 %35
  %38 = load ptr, ptr %37, align 8, !tbaa !11
  %39 = ptrtoint ptr %38 to i64
  %40 = and i64 %39, 1
  %.not.i33 = icmp eq i64 %40, 0
  br i1 %.not.i33, label %41, label %lean_array_uget.exit

41:                                               ; preds = %lean_dec.exit
  %.val.i.i = load i32, ptr %38, align 4, !tbaa !5
  %42 = icmp sgt i32 %.val.i.i, 0
  br i1 %42, label %43, label %45, !prof !10

43:                                               ; preds = %41
  %44 = add nuw i32 %.val.i.i, 1
  store i32 %44, ptr %38, align 4, !tbaa !5
  br label %lean_array_uget.exit

45:                                               ; preds = %41
  %.not.i.i = icmp eq i32 %.val.i.i, 0
  br i1 %.not.i.i, label %lean_array_uget.exit, label %46

46:                                               ; preds = %45
  tail call void @lean_inc_ref_cold(ptr noundef nonnull %38) #4
  br label %lean_array_uget.exit

lean_array_uget.exit:                             ; preds = %lean_dec.exit, %43, %45, %46
  %47 = tail call ptr @l_Std_DHashMap_Internal_AssocList_get_x3f___rarg(ptr noundef %2, ptr noundef %5, ptr noundef %38) #4
  ret ptr %47
}